; ModuleID = '32/1568.c'
source_filename = "32/1568.c"
target datalayout = "e-m:e-p270:32:32-p271:32:32-p272:64:64-i64:64-f80:128-n8:16:32:64-S128"
target triple = "x86_64-pc-linux-gnu"

@.str = private unnamed_addr constant [4 x i8] c"%d\0A\00", align 1
@.str.1 = private unnamed_addr constant [4 x i8] c"%s\0A\00", align 1

; Function Attrs: noinline nounwind uwtable
define dso_local void @main() #0 {
  %1 = alloca i32, align 4
  %2 = alloca i32, align 4
  %3 = alloca i32, align 4
  %4 = alloca i32, align 4
  %5 = alloca i32, align 4
  %6 = alloca [1000 x i8], align 16
  %7 = alloca [1000 x i8], align 16
  %8 = alloca [2 x i8], align 1
  %9 = call i32 (i8*, ...) @__isoc99_scanf(i8* getelementptr inbounds ([4 x i8], [4 x i8]* @.str, i64 0, i64 0), i32* %1)
  store i32 0, i32* %3, align 4
  br label %10

10:                                               ; preds = %86, %0
  %11 = load i32, i32* %3, align 4
  %12 = load i32, i32* %1, align 4
  %13 = icmp slt i32 %11, %12
  br i1 %13, label %14, label %89

14:                                               ; preds = %10
  %15 = getelementptr inbounds [1000 x i8], [1000 x i8]* %6, i64 0, i64 0
  %16 = call i32 (i8*, ...) bitcast (i32 (...)* @gets to i32 (i8*, ...)*)(i8* %15)
  %17 = getelementptr inbounds [1000 x i8], [1000 x i8]* %7, i64 0, i64 0
  %18 = call i32 (i8*, ...) bitcast (i32 (...)* @gets to i32 (i8*, ...)*)(i8* %17)
  %19 = getelementptr inbounds [2 x i8], [2 x i8]* %8, i64 0, i64 0
  %20 = call i32 (i8*, ...) bitcast (i32 (...)* @gets to i32 (i8*, ...)*)(i8* %19)
  %21 = getelementptr inbounds [1000 x i8], [1000 x i8]* %6, i64 0, i64 0
  %22 = call i64 @strlen(i8* %21) #3
  %23 = trunc i64 %22 to i32
  store i32 %23, i32* %4, align 4
  %24 = getelementptr inbounds [1000 x i8], [1000 x i8]* %7, i64 0, i64 0
  %25 = call i64 @strlen(i8* %24) #3
  %26 = trunc i64 %25 to i32
  store i32 %26, i32* %5, align 4
  store i32 1, i32* %2, align 4
  br label %27

27:                                               ; preds = %49, %14
  %28 = load i32, i32* %2, align 4
  %29 = load i32, i32* %5, align 4
  %30 = icmp sle i32 %28, %29
  br i1 %30, label %31, label %52

31:                                               ; preds = %27
  %32 = load i32, i32* %5, align 4
  %33 = load i32, i32* %2, align 4
  %34 = sub nsw i32 %32, %33
  %35 = sext i32 %34 to i64
  %36 = getelementptr inbounds [1000 x i8], [1000 x i8]* %7, i64 0, i64 %35
  %37 = load i8, i8* %36, align 1
  %38 = sext i8 %37 to i32
  %39 = sub nsw i32 %38, 48
  %40 = load i32, i32* %4, align 4
  %41 = load i32, i32* %2, align 4
  %42 = sub nsw i32 %40, %41
  %43 = sext i32 %42 to i64
  %44 = getelementptr inbounds [1000 x i8], [1000 x i8]* %6, i64 0, i64 %43
  %45 = load i8, i8* %44, align 1
  %46 = sext i8 %45 to i32
  %47 = sub nsw i32 %46, %39
  %48 = trunc i32 %47 to i8
  store i8 %48, i8* %44, align 1
  br label %49

49:                                               ; preds = %31
  %50 = load i32, i32* %2, align 4
  %51 = add nsw i32 %50, 1
  store i32 %51, i32* %2, align 4
  br label %27

52:                                               ; preds = %27
  %53 = load i32, i32* %4, align 4
  %54 = sub nsw i32 %53, 1
  store i32 %54, i32* %2, align 4
  br label %55

55:                                               ; preds = %80, %52
  %56 = load i32, i32* %2, align 4
  %57 = icmp sgt i32 %56, 0
  br i1 %57, label %58, label %83

58:                                               ; preds = %55
  %59 = load i32, i32* %2, align 4
  %60 = sext i32 %59 to i64
  %61 = getelementptr inbounds [1000 x i8], [1000 x i8]* %6, i64 0, i64 %60
  %62 = load i8, i8* %61, align 1
  %63 = sext i8 %62 to i32
  %64 = icmp slt i32 %63, 48
  br i1 %64, label %65, label %79

65:                                               ; preds = %58
  %66 = load i32, i32* %2, align 4
  %67 = sext i32 %66 to i64
  %68 = getelementptr inbounds [1000 x i8], [1000 x i8]* %6, i64 0, i64 %67
  %69 = load i8, i8* %68, align 1
  %70 = sext i8 %69 to i32
  %71 = add nsw i32 %70, 10
  %72 = trunc i32 %71 to i8
  store i8 %72, i8* %68, align 1
  %73 = load i32, i32* %2, align 4
  %74 = sub nsw i32 %73, 1
  %75 = sext i32 %74 to i64
  %76 = getelementptr inbounds [1000 x i8], [1000 x i8]* %6, i64 0, i64 %75
  %77 = load i8, i8* %76, align 1
  %78 = add i8 %77, -1
  store i8 %78, i8* %76, align 1
  br label %79

79:                                               ; preds = %65, %58
  br label %80

80:                                               ; preds = %79
  %81 = load i32, i32* %2, align 4
  %82 = add nsw i32 %81, -1
  store i32 %82, i32* %2, align 4
  br label %55

83:                                               ; preds = %55
  %84 = getelementptr inbounds [1000 x i8], [1000 x i8]* %6, i64 0, i64 0
  %85 = call i32 (i8*, ...) @printf(i8* getelementptr inbounds ([4 x i8], [4 x i8]* @.str.1, i64 0, i64 0), i8* %84)
  br label %86

86:                                               ; preds = %83
  %87 = load i32, i32* %3, align 4
  %88 = add nsw i32 %87, 1
  store i32 %88, i32* %3, align 4
  br label %10

89:                                               ; preds = %10
  ret void
}

declare dso_local i32 @__isoc99_scanf(i8*, ...) #1

declare dso_local i32 @gets(...) #1

; Function Attrs: nounwind readonly
declare dso_local i64 @strlen(i8*) #2

declare dso_local i32 @printf(i8*, ...) #1


!llvm.module.flags = !{!0}
!llvm.ident = !{!1}

!0 = !{i32 1, !"wchar_size", i32 4}
!1 = !{!"clang version 10.0.0-4ubuntu1 "}
